target datalayout = "e-m:e-p270:32:32-p271:32:32-p272:64:64-i64:64-i128:128-f80:128-n8:16:32:64-S128"
target triple = "x86_64-pc-linux-gnu"

%struct.ogg_page = type { ptr, i64, ptr, i64 }

; Function Attrs: nounwind sspstrong uwtable
define hidden void @simple_ogg_page__init(ptr noundef %0) #0 {
  %2 = alloca ptr, align 8
  store ptr %0, ptr %2, align 8, !tbaa !3
  %3 = load ptr, ptr %2, align 8, !tbaa !3
  %4 = getelementptr inbounds nuw %struct.ogg_page, ptr %3, i32 0, i32 0
  store ptr null, ptr %4, align 8, !tbaa !7
  %5 = load ptr, ptr %2, align 8, !tbaa !3
  %6 = getelementptr inbounds nuw %struct.ogg_page, ptr %5, i32 0, i32 1
  store i64 0, ptr %6, align 8, !tbaa !11
  %7 = load ptr, ptr %2, align 8, !tbaa !3
  %8 = getelementptr inbounds nuw %struct.ogg_page, ptr %7, i32 0, i32 2
  store ptr null, ptr %8, align 8, !tbaa !12
  %9 = load ptr, ptr %2, align 8, !tbaa !3
  %10 = getelementptr inbounds nuw %struct.ogg_page, ptr %9, i32 0, i32 3
  store i64 0, ptr %10, align 8, !tbaa !13
  ret void
}

; Function Attrs: nounwind sspstrong uwtable
define hidden void @simple_ogg_page__clear(ptr noundef %0) #0 {
  %2 = alloca ptr, align 8
  store ptr %0, ptr %2, align 8, !tbaa !3
  %3 = load ptr, ptr %2, align 8, !tbaa !3
  %4 = getelementptr inbounds nuw %struct.ogg_page, ptr %3, i32 0, i32 0
  %5 = load ptr, ptr %4, align 8, !tbaa !7
  %6 = icmp ne ptr %5, null
  br i1 %6, label %7, label %11

7:                                                ; preds = %1
  %8 = load ptr, ptr %2, align 8, !tbaa !3
  %9 = getelementptr inbounds nuw %struct.ogg_page, ptr %8, i32 0, i32 0
  %10 = load ptr, ptr %9, align 8, !tbaa !7
  call void @free(ptr noundef %10) #9
  br label %11

11:                                               ; preds = %7, %1
  %12 = load ptr, ptr %2, align 8, !tbaa !3
  %13 = getelementptr inbounds nuw %struct.ogg_page, ptr %12, i32 0, i32 2
  %14 = load ptr, ptr %13, align 8, !tbaa !12
  %15 = icmp ne ptr %14, null
  br i1 %15, label %16, label %20

16:                                               ; preds = %11
  %17 = load ptr, ptr %2, align 8, !tbaa !3
  %18 = getelementptr inbounds nuw %struct.ogg_page, ptr %17, i32 0, i32 2
  %19 = load ptr, ptr %18, align 8, !tbaa !12
  call void @free(ptr noundef %19) #9
  br label %20

20:                                               ; preds = %16, %11
  %21 = load ptr, ptr %2, align 8, !tbaa !3
  call void @simple_ogg_page__init(ptr noundef %21)
  ret void
}